target datalayout = "e-m:e-p270:32:32-p271:32:32-p272:64:64-i64:64-i128:128-f80:128-n8:16:32:64-S128"
target triple = "x86_64-pc-linux-gnu"

%struct.FT_Vector_ = type { i64, i64 }
%struct.FT_Outline_ = type { i16, i16, ptr, ptr, ptr, i32 }

; Function Attrs: nounwind uwtable
define internal void @tt_delta_shift(i32 noundef %0, i32 noundef %1, i32 noundef %2, ptr noundef %3, ptr noundef %4) #0 {
  %6 = alloca i32, align 4
  %7 = alloca i32, align 4
  %8 = alloca i32, align 4
  %9 = alloca ptr, align 8
  %10 = alloca ptr, align 8
  %11 = alloca i32, align 4
  %12 = alloca %struct.FT_Vector_, align 8
  store i32 %0, ptr %6, align 4
  store i32 %1, ptr %7, align 4
  store i32 %2, ptr %8, align 4
  store ptr %3, ptr %9, align 8
  store ptr %4, ptr %10, align 8
  %13 = load ptr, ptr %10, align 8
  %14 = load i32, ptr %8, align 4
  %15 = sext i32 %14 to i64
  %16 = getelementptr inbounds %struct.FT_Vector_, ptr %13, i64 %15
  %17 = getelementptr inbounds %struct.FT_Vector_, ptr %16, i32 0, i32 0
  %18 = load i64, ptr %17, align 8
  %19 = load ptr, ptr %9, align 8
  %20 = load i32, ptr %8, align 4
  %21 = sext i32 %20 to i64
  %22 = getelementptr inbounds %struct.FT_Vector_, ptr %19, i64 %21
  %23 = getelementptr inbounds %struct.FT_Vector_, ptr %22, i32 0, i32 0
  %24 = load i64, ptr %23, align 8
  %25 = sub nsw i64 %18, %24
  %26 = getelementptr inbounds %struct.FT_Vector_, ptr %12, i32 0, i32 0
  store i64 %25, ptr %26, align 8
  %27 = load ptr, ptr %10, align 8
  %28 = load i32, ptr %8, align 4
  %29 = sext i32 %28 to i64
  %30 = getelementptr inbounds %struct.FT_Vector_, ptr %27, i64 %29
  %31 = getelementptr inbounds %struct.FT_Vector_, ptr %30, i32 0, i32 1
  %32 = load i64, ptr %31, align 8
  %33 = load ptr, ptr %9, align 8
  %34 = load i32, ptr %8, align 4
  %35 = sext i32 %34 to i64
  %36 = getelementptr inbounds %struct.FT_Vector_, ptr %33, i64 %35
  %37 = getelementptr inbounds %struct.FT_Vector_, ptr %36, i32 0, i32 1
  %38 = load i64, ptr %37, align 8
  %39 = sub nsw i64 %32, %38
  %40 = getelementptr inbounds %struct.FT_Vector_, ptr %12, i32 0, i32 1
  store i64 %39, ptr %40, align 8
  %41 = getelementptr inbounds %struct.FT_Vector_, ptr %12, i32 0, i32 0
  %42 = load i64, ptr %41, align 8
  %43 = icmp eq i64 %42, 0
  br i1 %43, label %44, label %49

44:                                               ; preds = %5
  %45 = getelementptr inbounds %struct.FT_Vector_, ptr %12, i32 0, i32 1
  %46 = load i64, ptr %45, align 8
  %47 = icmp eq i64 %46, 0
  br i1 %47, label %48, label %49

48:                                               ; preds = %44
  br label %106

49:                                               ; preds = %44, %5
  %50 = load i32, ptr %6, align 4
  store i32 %50, ptr %11, align 4
  br label %51

51:                                               ; preds = %74, %49
  %52 = load i32, ptr %11, align 4
  %53 = load i32, ptr %8, align 4
  %54 = icmp slt i32 %52, %53
  br i1 %54, label %55, label %77

55:                                               ; preds = %51
  %56 = getelementptr inbounds %struct.FT_Vector_, ptr %12, i32 0, i32 0
  %57 = load i64, ptr %56, align 8
  %58 = load ptr, ptr %10, align 8
  %59 = load i32, ptr %11, align 4
  %60 = sext i32 %59 to i64
  %61 = getelementptr inbounds %struct.FT_Vector_, ptr %58, i64 %60
  %62 = getelementptr inbounds %struct.FT_Vector_, ptr %61, i32 0, i32 0
  %63 = load i64, ptr %62, align 8
  %64 = add nsw i64 %63, %57
  store i64 %64, ptr %62, align 8
  %65 = getelementptr inbounds %struct.FT_Vector_, ptr %12, i32 0, i32 1
  %66 = load i64, ptr %65, align 8
  %67 = load ptr, ptr %10, align 8
  %68 = load i32, ptr %11, align 4
  %69 = sext i32 %68 to i64
  %70 = getelementptr inbounds %struct.FT_Vector_, ptr %67, i64 %69
  %71 = getelementptr inbounds %struct.FT_Vector_, ptr %70, i32 0, i32 1
  %72 = load i64, ptr %71, align 8
  %73 = add nsw i64 %72, %66
  store i64 %73, ptr %71, align 8
  br label %74

74:                                               ; preds = %55
  %75 = load i32, ptr %11, align 4
  %76 = add nsw i32 %75, 1
  store i32 %76, ptr %11, align 4
  br label %51, !llvm.loop !143

77:                                               ; preds = %51
  %78 = load i32, ptr %8, align 4
  %79 = add nsw i32 %78, 1
  store i32 %79, ptr %11, align 4
  br label %80

80:                                               ; preds = %103, %77
  %81 = load i32, ptr %11, align 4
  %82 = load i32, ptr %7, align 4
  %83 = icmp sle i32 %81, %82
  br i1 %83, label %84, label %106

84:                                               ; preds = %80
  %85 = getelementptr inbounds %struct.FT_Vector_, ptr %12, i32 0, i32 0
  %86 = load i64, ptr %85, align 8
  %87 = load ptr, ptr %10, align 8
  %88 = load i32, ptr %11, align 4
  %89 = sext i32 %88 to i64
  %90 = getelementptr inbounds %struct.FT_Vector_, ptr %87, i64 %89
  %91 = getelementptr inbounds %struct.FT_Vector_, ptr %90, i32 0, i32 0
  %92 = load i64, ptr %91, align 8
  %93 = add nsw i64 %92, %86
  store i64 %93, ptr %91, align 8
  %94 = getelementptr inbounds %struct.FT_Vector_, ptr %12, i32 0, i32 1
  %95 = load i64, ptr %94, align 8
  %96 = load ptr, ptr %10, align 8
  %97 = load i32, ptr %11, align 4
  %98 = sext i32 %97 to i64
  %99 = getelementptr inbounds %struct.FT_Vector_, ptr %96, i64 %98
  %100 = getelementptr inbounds %struct.FT_Vector_, ptr %99, i32 0, i32 1
  %101 = load i64, ptr %100, align 8
  %102 = add nsw i64 %101, %95
  store i64 %102, ptr %100, align 8
  br label %103

103:                                              ; preds = %84
  %104 = load i32, ptr %11, align 4
  %105 = add nsw i32 %104, 1
  store i32 %105, ptr %11, align 4
  br label %80, !llvm.loop !144

106:                                              ; preds = %80, %48
  ret void
}

; Function Attrs: nounwind uwtable
define internal void @tt_interpolate_deltas(ptr noundef %0, ptr noundef %1, ptr noundef %2, ptr noundef %3) #0 {
  %5 = alloca ptr, align 8
  %6 = alloca ptr, align 8
  %7 = alloca ptr, align 8
  %8 = alloca ptr, align 8
  %9 = alloca i32, align 4
  %10 = alloca i32, align 4
  %11 = alloca i32, align 4
  %12 = alloca i32, align 4
  %13 = alloca i32, align 4
  %14 = alloca i16, align 2
  store ptr %0, ptr %5, align 8
  store ptr %1, ptr %6, align 8
  store ptr %2, ptr %7, align 8
  store ptr %3, ptr %8, align 8
  %15 = load ptr, ptr %5, align 8
  %16 = getelementptr inbounds %struct.FT_Outline_, ptr %15, i32 0, i32 0
  %17 = load i16, ptr %16, align 8
  %18 = icmp ne i16 %17, 0
  br i1 %18, label %20, label %19

19:                                               ; preds = %4
  br label %122

20:                                               ; preds = %4
  store i16 0, ptr %14, align 2
  store i32 0, ptr %13, align 4
  br label %21

21:                                               ; preds = %114, %20
  %22 = load ptr, ptr %5, align 8
  %23 = getelementptr inbounds %struct.FT_Outline_, ptr %22, i32 0, i32 4
  %24 = load ptr, ptr %23, align 8
  %25 = load i16, ptr %14, align 2
  %26 = sext i16 %25 to i64
  %27 = getelementptr inbounds i16, ptr %24, i64 %26
  %28 = load i16, ptr %27, align 2
  %29 = zext i16 %28 to i32
  store i32 %29, ptr %10, align 4
  %30 = load i32, ptr %13, align 4
  store i32 %30, ptr %9, align 4
  br label %31

31:                                               ; preds = %45, %21
  %32 = load i32, ptr %13, align 4
  %33 = load i32, ptr %10, align 4
  %34 = icmp sle i32 %32, %33
  br i1 %34, label %35, label %43

35:                                               ; preds = %31
  %36 = load ptr, ptr %8, align 8
  %37 = load i32, ptr %13, align 4
  %38 = sext i32 %37 to i64
  %39 = getelementptr inbounds i8, ptr %36, i64 %38
  %40 = load i8, ptr %39, align 1
  %41 = icmp ne i8 %40, 0
  %42 = xor i1 %41, true
  br label %43

43:                                               ; preds = %35, %31
  %44 = phi i1 [ false, %31 ], [ %42, %35 ]
  br i1 %44, label %45, label %48

45:                                               ; preds = %43
  %46 = load i32, ptr %13, align 4
  %47 = add nsw i32 %46, 1
  store i32 %47, ptr %13, align 4
  br label %31, !llvm.loop !138

48:                                               ; preds = %43
  %49 = load i32, ptr %13, align 4
  %50 = load i32, ptr %10, align 4
  %51 = icmp sle i32 %49, %50
  br i1 %51, label %52, label %111

52:                                               ; preds = %48
  %53 = load i32, ptr %13, align 4
  store i32 %53, ptr %11, align 4
  %54 = load i32, ptr %13, align 4
  store i32 %54, ptr %12, align 4
  %55 = load i32, ptr %13, align 4
  %56 = add nsw i32 %55, 1
  store i32 %56, ptr %13, align 4
  br label %57

57:                                               ; preds = %78, %52
  %58 = load i32, ptr %13, align 4
  %59 = load i32, ptr %10, align 4
  %60 = icmp sle i32 %58, %59
  br i1 %60, label %61, label %81

61:                                               ; preds = %57
  %62 = load ptr, ptr %8, align 8
  %63 = load i32, ptr %13, align 4
  %64 = sext i32 %63 to i64
  %65 = getelementptr inbounds i8, ptr %62, i64 %64
  %66 = load i8, ptr %65, align 1
  %67 = icmp ne i8 %66, 0
  br i1 %67, label %68, label %78

68:                                               ; preds = %61
  %69 = load i32, ptr %12, align 4
  %70 = add nsw i32 %69, 1
  %71 = load i32, ptr %13, align 4
  %72 = sub nsw i32 %71, 1
  %73 = load i32, ptr %12, align 4
  %74 = load i32, ptr %13, align 4
  %75 = load ptr, ptr %7, align 8
  %76 = load ptr, ptr %6, align 8
  call void @tt_delta_interpolate(i32 noundef %70, i32 noundef %72, i32 noundef %73, i32 noundef %74, ptr noundef %75, ptr noundef %76)
  %77 = load i32, ptr %13, align 4
  store i32 %77, ptr %12, align 4
  br label %78

78:                                               ; preds = %68, %61
  %79 = load i32, ptr %13, align 4
  %80 = add nsw i32 %79, 1
  store i32 %80, ptr %13, align 4
  br label %57, !llvm.loop !139

81:                                               ; preds = %57
  %82 = load i32, ptr %12, align 4
  %83 = load i32, ptr %11, align 4
  %84 = icmp eq i32 %82, %83
  br i1 %84, label %85, label %91

85:                                               ; preds = %81
  %86 = load i32, ptr %9, align 4
  %87 = load i32, ptr %10, align 4
  %88 = load i32, ptr %12, align 4
  %89 = load ptr, ptr %7, align 8
  %90 = load ptr, ptr %6, align 8
  call void @tt_delta_shift(i32 noundef %86, i32 noundef %87, i32 noundef %88, ptr noundef %89, ptr noundef %90)
  br label %110

91:                                               ; preds = %81
  %92 = load i32, ptr %12, align 4
  %93 = add nsw i32 %92, 1
  %94 = load i32, ptr %10, align 4
  %95 = load i32, ptr %12, align 4
  %96 = load i32, ptr %11, align 4
  %97 = load ptr, ptr %7, align 8
  %98 = load ptr, ptr %6, align 8
  call void @tt_delta_interpolate(i32 noundef %93, i32 noundef %94, i32 noundef %95, i32 noundef %96, ptr noundef %97, ptr noundef %98)
  %99 = load i32, ptr %11, align 4
  %100 = icmp sgt i32 %99, 0
  br i1 %100, label %101, label %109

101:                                              ; preds = %91
  %102 = load i32, ptr %9, align 4
  %103 = load i32, ptr %11, align 4
  %104 = sub nsw i32 %103, 1
  %105 = load i32, ptr %12, align 4
  %106 = load i32, ptr %11, align 4
  %107 = load ptr, ptr %7, align 8
  %108 = load ptr, ptr %6, align 8
  call void @tt_delta_interpolate(i32 noundef %102, i32 noundef %104, i32 noundef %105, i32 noundef %106, ptr noundef %107, ptr noundef %108)
  br label %109

109:                                              ; preds = %101, %91
  br label %110

110:                                              ; preds = %109, %85
  br label %111

111:                                              ; preds = %110, %48
  %112 = load i16, ptr %14, align 2
  %113 = add i16 %112, 1
  store i16 %113, ptr %14, align 2
  br label %114

114:                                              ; preds = %111
  %115 = load i16, ptr %14, align 2
  %116 = sext i16 %115 to i32
  %117 = load ptr, ptr %5, align 8
  %118 = getelementptr inbounds %struct.FT_Outline_, ptr %117, i32 0, i32 0
  %119 = load i16, ptr %118, align 8
  %120 = zext i16 %119 to i32
  %121 = icmp slt i32 %116, %120
  br i1 %121, label %21, label %122, !llvm.loop !140

122:                                              ; preds = %114, %19
  ret void
}