; Function Attrs: nounwind uwtable
define internal fastcc void @tt_interpolate_deltas(ptr nocapture noundef readonly %0, ptr nocapture noundef %1, ptr nocapture noundef readonly %2, ptr nocapture noundef readonly %3) unnamed_addr #2 {
  %5 = load i16, ptr %0, align 8
  %.not = icmp eq i16 %5, 0
  br i1 %.not, label %.loopexit, label %.preheader

.preheader:                                       ; preds = %4
  %6 = getelementptr inbounds i8, ptr %0, i64 24
  br label %7

7:                                                ; preds = %.preheader, %.critedge56
  %.048 = phi i32 [ %.3, %.critedge56 ], [ 0, %.preheader ]
  %.0 = phi i16 [ %110, %.critedge56 ], [ 0, %.preheader ]
  %8 = load ptr, ptr %6, align 8
  %9 = sext i16 %.0 to i64
  %10 = getelementptr inbounds i16, ptr %8, i64 %9
  %11 = load i16, ptr %10, align 2
  %12 = zext i16 %11 to i32
  %.not5266 = icmp sgt i32 %.048, %12
  br i1 %.not5266, label %.critedge56, label %.lr.ph.preheader

.lr.ph.preheader:                                 ; preds = %7
  %13 = sext i32 %.048 to i64
  %14 = zext i16 %11 to i64
  %15 = add nuw nsw i32 %12, 1
  br label %.lr.ph

.lr.ph:                                           ; preds = %.lr.ph.preheader, %20
  %indvars.iv80.in = phi i32 [ %.048, %.lr.ph.preheader ], [ %indvars.iv80, %20 ]
  %indvars.iv = phi i64 [ %13, %.lr.ph.preheader ], [ %indvars.iv.next, %20 ]
  %indvars.iv80 = add i32 %indvars.iv80.in, 1
  %16 = getelementptr inbounds i8, ptr %3, i64 %indvars.iv
  %17 = load i8, ptr %16, align 1
  %.not53 = icmp eq i8 %17, 0
  br i1 %.not53, label %20, label %.critedge.preheader

.critedge.preheader:                              ; preds = %.lr.ph
  %18 = trunc nsw i64 %indvars.iv to i32
  %.not54.not69 = icmp slt i32 %18, %12
  br i1 %.not54.not69, label %.lr.ph73.preheader, label %.critedge._crit_edge.thread

.critedge._crit_edge.thread:                      ; preds = %.critedge.preheader
  %.2.lcssa88 = add i32 %18, 1
  br label %78

.lr.ph73.preheader:                               ; preds = %.critedge.preheader
  %19 = sext i32 %indvars.iv80 to i64
  br label %.lr.ph73

20:                                               ; preds = %.lr.ph
  %indvars.iv.next = add nsw i64 %indvars.iv, 1
  %.not52.not = icmp slt i64 %indvars.iv, %14
  br i1 %.not52.not, label %.lr.ph, label %.critedge56, !llvm.loop !136

.lr.ph73:                                         ; preds = %.lr.ph73.preheader, %tt_delta_interpolate.exit
  %indvars.iv83 = phi i64 [ %19, %.lr.ph73.preheader ], [ %indvars.iv.next84, %tt_delta_interpolate.exit ]
  %.2.in71 = phi i32 [ %18, %.lr.ph73.preheader ], [ %.pre-phi, %tt_delta_interpolate.exit ]
  %.04970 = phi i32 [ %18, %.lr.ph73.preheader ], [ %.150, %tt_delta_interpolate.exit ]
  %21 = getelementptr inbounds i8, ptr %3, i64 %indvars.iv83
  %22 = load i8, ptr %21, align 1
  %.not55 = icmp eq i8 %22, 0
  br i1 %.not55, label %.lr.ph73.tt_delta_interpolate.exit_crit_edge, label %23

.lr.ph73.tt_delta_interpolate.exit_crit_edge:     ; preds = %.lr.ph73
  %.pre = trunc nsw i64 %indvars.iv83 to i32
  br label %tt_delta_interpolate.exit

23:                                               ; preds = %.lr.ph73
  %.not62 = icmp slt i32 %.04970, %.2.in71
  %24 = trunc nsw i64 %indvars.iv83 to i32
  br i1 %.not62, label %.preheader.split.preheader.i, label %tt_delta_interpolate.exit

.preheader.split.preheader.i:                     ; preds = %23
  %25 = add nsw i32 %.04970, 1
  %26 = sext i32 %25 to i64
  br label %.preheader.split.i

.preheader.split.i:                               ; preds = %..loopexit_crit_edge.i, %.preheader.split.preheader.i
  %27 = phi i1 [ true, %.preheader.split.preheader.i ], [ false, %..loopexit_crit_edge.i ]
  %indvars.iv87.i = phi i64 [ 0, %.preheader.split.preheader.i ], [ 1, %..loopexit_crit_edge.i ]
  %.085.i = phi i32 [ %.04970, %.preheader.split.preheader.i ], [ %spec.select74.i, %..loopexit_crit_edge.i ]
  %.05784.i = phi i32 [ %24, %.preheader.split.preheader.i ], [ %spec.select.i, %..loopexit_crit_edge.i ]
  %.05983.i = phi ptr [ %2, %.preheader.split.preheader.i ], [ %28, %..loopexit_crit_edge.i ]
  %.06082.i = phi ptr [ %1, %.preheader.split.preheader.i ], [ %29, %..loopexit_crit_edge.i ]
  %28 = getelementptr inbounds i64, ptr %.05983.i, i64 %indvars.iv87.i
  %29 = getelementptr inbounds i64, ptr %.06082.i, i64 %indvars.iv87.i
  %30 = sext i32 %.085.i to i64
  %31 = getelementptr inbounds %struct.FT_Vector_, ptr %28, i64 %30
  %32 = load i64, ptr %31, align 8
  %33 = sext i32 %.05784.i to i64
  %34 = getelementptr inbounds %struct.FT_Vector_, ptr %28, i64 %33
  %35 = load i64, ptr %34, align 8
  %36 = icmp sgt i64 %32, %35
  %spec.select.i = select i1 %36, i32 %.085.i, i32 %.05784.i
  %spec.select74.i = select i1 %36, i32 %.05784.i, i32 %.085.i
  %37 = sext i32 %spec.select74.i to i64
  %38 = getelementptr inbounds %struct.FT_Vector_, ptr %28, i64 %37
  %39 = load i64, ptr %38, align 8
  %40 = sext i32 %spec.select.i to i64
  %41 = getelementptr inbounds %struct.FT_Vector_, ptr %28, i64 %40
  %42 = load i64, ptr %41, align 8
  %43 = getelementptr inbounds %struct.FT_Vector_, ptr %29, i64 %37
  %44 = load i64, ptr %43, align 8
  %45 = getelementptr inbounds %struct.FT_Vector_, ptr %29, i64 %40
  %46 = load i64, ptr %45, align 8
  %47 = sub i64 %44, %39
  %48 = sub i64 %46, %42
  %.not.i = icmp ne i64 %39, %42
  %49 = icmp eq i64 %44, %46
  %or.cond.i = select i1 %.not.i, i1 true, i1 %49
  br i1 %or.cond.i, label %50, label %..loopexit_crit_edge.i

50:                                               ; preds = %.preheader.split.i
  br i1 %.not.i, label %51, label %.lr.ph.i

51:                                               ; preds = %50
  %52 = sub nsw i64 %46, %44
  %53 = sub nsw i64 %42, %39
  %54 = tail call i64 @FT_DivFix(i64 noundef %52, i64 noundef %53) #22
  br label %.lr.ph.i

.lr.ph.i:                                         ; preds = %51, %50
  %55 = phi i64 [ %54, %51 ], [ 0, %50 ]
  %sext75.i = shl i64 %55, 32
  %56 = ashr exact i64 %sext75.i, 32
  br label %57

57:                                               ; preds = %75, %.lr.ph.i
  %indvars.iv.i = phi i64 [ %26, %.lr.ph.i ], [ %indvars.iv.next.i, %75 ]
  %58 = getelementptr inbounds %struct.FT_Vector_, ptr %28, i64 %indvars.iv.i
  %59 = load i64, ptr %58, align 8
  %.not72.i = icmp sgt i64 %59, %39
  br i1 %.not72.i, label %62, label %60

60:                                               ; preds = %57
  %61 = add nsw i64 %47, %59
  br label %75

62:                                               ; preds = %57
  %.not73.i = icmp slt i64 %59, %42
  br i1 %.not73.i, label %65, label %63

63:                                               ; preds = %62
  %64 = add nsw i64 %48, %59
  br label %75

65:                                               ; preds = %62
  %66 = sub nsw i64 %59, %39
  %sext.i = shl i64 %66, 32
  %67 = ashr exact i64 %sext.i, 32
  %68 = mul nsw i64 %67, %56
  %69 = ashr i64 %68, 63
  %70 = add nsw i64 %68, 32768
  %71 = add nsw i64 %70, %69
  %72 = shl i64 %71, 16
  %73 = ashr i64 %72, 32
  %74 = add nsw i64 %73, %44
  br label %75

75:                                               ; preds = %65, %63, %60
  %.063.i = phi i64 [ %61, %60 ], [ %64, %63 ], [ %74, %65 ]
  %76 = getelementptr inbounds %struct.FT_Vector_, ptr %29, i64 %indvars.iv.i
  store i64 %.063.i, ptr %76, align 8
  %indvars.iv.next.i = add nsw i64 %indvars.iv.i, 1
  %lftr.wideiv.i = trunc i64 %indvars.iv.next.i to i32
  %exitcond.not.i = icmp eq i32 %24, %lftr.wideiv.i
  br i1 %exitcond.not.i, label %..loopexit_crit_edge.i, label %57, !llvm.loop !137

..loopexit_crit_edge.i:                           ; preds = %75, %.preheader.split.i
  br i1 %27, label %.preheader.split.i, label %tt_delta_interpolate.exit, !llvm.loop !138

tt_delta_interpolate.exit:                        ; preds = %..loopexit_crit_edge.i, %.lr.ph73.tt_delta_interpolate.exit_crit_edge, %23
  %.pre-phi = phi i32 [ %.pre, %.lr.ph73.tt_delta_interpolate.exit_crit_edge ], [ %24, %23 ], [ %24, %..loopexit_crit_edge.i ]
  %.150 = phi i32 [ %.04970, %.lr.ph73.tt_delta_interpolate.exit_crit_edge ], [ %24, %23 ], [ %24, %..loopexit_crit_edge.i ]
  %indvars.iv.next84 = add nsw i64 %indvars.iv83, 1
  %.not54.not = icmp slt i64 %indvars.iv83, %14
  br i1 %.not54.not, label %.lr.ph73, label %.critedge._crit_edge, !llvm.loop !139

.critedge._crit_edge:                             ; preds = %tt_delta_interpolate.exit
  %.2.lcssa = add nuw nsw i32 %12, 1
  %77 = icmp eq i32 %.150, %18
  br i1 %77, label %78, label %105

78:                                               ; preds = %.critedge._crit_edge.thread, %.critedge._crit_edge
  %.2.lcssa89 = phi i32 [ %.2.lcssa88, %.critedge._crit_edge.thread ], [ %.2.lcssa, %.critedge._crit_edge ]
  %sext = shl i64 %indvars.iv, 32
  %79 = ashr exact i64 %sext, 32
  %80 = getelementptr inbounds %struct.FT_Vector_, ptr %1, i64 %79
  %81 = load i64, ptr %80, align 8
  %82 = getelementptr inbounds %struct.FT_Vector_, ptr %2, i64 %79
  %83 = load i64, ptr %82, align 8
  %84 = sub nsw i64 %81, %83
  %85 = getelementptr inbounds i8, ptr %80, i64 8
  %86 = load i64, ptr %85, align 8
  %87 = getelementptr inbounds i8, ptr %82, i64 8
  %88 = load i64, ptr %87, align 8
  %89 = sub nsw i64 %86, %88
  %90 = icmp eq i64 %81, %83
  %91 = icmp eq i64 %86, %88
  %or.cond.i57 = select i1 %90, i1 %91, i1 false
  br i1 %or.cond.i57, label %.critedge56, label %.preheader30.i

.preheader30.i:                                   ; preds = %78
  %92 = icmp slt i32 %.048, %18
  br i1 %92, label %.lr.ph.i58, label %.preheader.i

.preheader.i:                                     ; preds = %.lr.ph.i58, %.preheader30.i
  br i1 %.not54.not69, label %.lr.ph34.preheader.i, label %.critedge56

.lr.ph34.preheader.i:                             ; preds = %.preheader.i
  %wide.trip.count39.i = zext i16 %11 to i64
  br label %.lr.ph34.i

.lr.ph.i58:                                       ; preds = %.preheader30.i, %.lr.ph.i58
  %indvars.iv.i59 = phi i64 [ %indvars.iv.next.i60, %.lr.ph.i58 ], [ %13, %.preheader30.i ]
  %93 = getelementptr inbounds %struct.FT_Vector_, ptr %1, i64 %indvars.iv.i59
  %94 = load i64, ptr %93, align 8
  %95 = add nsw i64 %94, %84
  store i64 %95, ptr %93, align 8
  %96 = getelementptr inbounds i8, ptr %93, i64 8
  %97 = load i64, ptr %96, align 8
  %98 = add nsw i64 %97, %89
  store i64 %98, ptr %96, align 8
  %indvars.iv.next.i60 = add nsw i64 %indvars.iv.i59, 1
  %exitcond.not.i61 = icmp eq i64 %indvars.iv.next.i60, %79
  br i1 %exitcond.not.i61, label %.preheader.i, label %.lr.ph.i58, !llvm.loop !140

.lr.ph34.i:                                       ; preds = %.lr.ph34.i, %.lr.ph34.preheader.i
  %indvars.iv36.i = phi i64 [ %79, %.lr.ph34.preheader.i ], [ %indvars.iv.next37.i, %.lr.ph34.i ]
  %indvars.iv.next37.i = add nsw i64 %indvars.iv36.i, 1
  %99 = getelementptr inbounds %struct.FT_Vector_, ptr %1, i64 %indvars.iv.next37.i
  %100 = load i64, ptr %99, align 8
  %101 = add nsw i64 %100, %84
  store i64 %101, ptr %99, align 8
  %102 = getelementptr inbounds i8, ptr %99, i64 8
  %103 = load i64, ptr %102, align 8
  %104 = add nsw i64 %103, %89
  store i64 %104, ptr %102, align 8
  %exitcond40.not.i = icmp eq i64 %indvars.iv.next37.i, %wide.trip.count39.i
  br i1 %exitcond40.not.i, label %.critedge56, label %.lr.ph34.i, !llvm.loop !141

105:                                              ; preds = %.critedge._crit_edge
  %106 = add nsw i32 %.150, 1
  tail call fastcc void @tt_delta_interpolate(i32 noundef %106, i32 noundef %12, i32 noundef %.150, i32 noundef %18, ptr noundef %2, ptr noundef %1)
  %107 = icmp sgt i64 %indvars.iv, 0
  br i1 %107, label %108, label %.critedge56

108:                                              ; preds = %105
  %109 = add nsw i32 %18, -1
  tail call fastcc void @tt_delta_interpolate(i32 noundef %.048, i32 noundef %109, i32 noundef %.150, i32 noundef %18, ptr noundef %2, ptr noundef %1)
  br label %.critedge56

.critedge56:                                      ; preds = %20, %.lr.ph34.i, %7, %.preheader.i, %78, %108, %105
  %.3 = phi i32 [ %.2.lcssa, %108 ], [ %.2.lcssa, %105 ], [ %.2.lcssa89, %78 ], [ %.2.lcssa89, %.preheader.i ], [ %.048, %7 ], [ %.2.lcssa89, %.lr.ph34.i ], [ %15, %20 ]
  %110 = add i16 %.0, 1
  %111 = sext i16 %110 to i32
  %112 = load i16, ptr %0, align 8
  %113 = zext i16 %112 to i32
  %114 = icmp slt i32 %111, %113
  br i1 %114, label %7, label %.loopexit, !llvm.loop !142

.loopexit:                                        ; preds = %.critedge56, %4
  ret void
}